target datalayout = "e-m:e-p270:32:32-p271:32:32-p272:64:64-i64:64-i128:128-f80:128-n8:16:32:64-S128"
target triple = "x86_64-pc-linux-gnu"

%struct.aom_codec_ctx = type { ptr, ptr, i32, ptr, i64, %union.anon, ptr }
%union.anon = type { ptr }
%struct.aom_codec_priv = type { ptr, i64, %struct.anon }
%struct.anon = type { %struct.aom_fixed_buf, i32, i32, %struct.aom_codec_cx_pkt }
%struct.aom_fixed_buf = type { ptr, i64 }
%struct.aom_codec_cx_pkt = type { i32, %union.anon.0 }
%union.anon.0 = type { %struct.aom_psnr_pkt }
%struct.aom_psnr_pkt = type { [4 x i32], [4 x i64], [4 x double], [4 x i32], [4 x i64], [4 x double] }
%struct.aom_codec_alg_priv = type { %struct.aom_codec_priv, %struct.aom_codec_dec_cfg, %struct.aom_codec_stream_info, %struct.aom_image, i32, i32, i32, ptr, i32, i32, i32, i32, i32, i32, i32, i32, %struct.EXTERNAL_REFERENCES, i32, i32, i32, ptr, %struct.aom_image, [4 x %struct.aom_codec_frame_buffer], i64, i32, ptr, ptr, ptr, ptr }
%struct.aom_codec_dec_cfg = type { i32, i32, i32, i32 }
%struct.aom_codec_stream_info = type { i32, i32, i32, i32, i32, i32 }
%struct.EXTERNAL_REFERENCES = type { [128 x %struct.yv12_buffer_config], i32 }
%struct.yv12_buffer_config = type { %union.anon.2, %union.anon.4, %union.anon.6, %union.anon.8, %union.anon.10, %union.anon.12, i32, [3 x ptr], ptr, i32, ptr, i64, i32, i64, i32, i32, i32, i32, i32, i32, i8, i32, i32, i32, i32, i32, i32, ptr }
%union.anon.2 = type { %struct.anon.3 }
%struct.anon.3 = type { i32, i32 }
%union.anon.4 = type { %struct.anon.5 }
%struct.anon.5 = type { i32, i32 }
%union.anon.6 = type { %struct.anon.7 }
%struct.anon.7 = type { i32, i32 }
%union.anon.8 = type { %struct.anon.9 }
%struct.anon.9 = type { i32, i32 }
%union.anon.10 = type { %struct.anon.11 }
%struct.anon.11 = type { i32, i32 }
%union.anon.12 = type { %struct.anon.13 }
%struct.anon.13 = type { ptr, ptr, ptr }
%struct.aom_image = type { i32, i32, i32, i32, i32, i32, i32, i32, i32, i32, i32, i32, i32, i32, i32, i32, [3 x ptr], [3 x i32], i64, i32, i32, i32, ptr, ptr, i32, i32, ptr, ptr }
%struct.aom_codec_frame_buffer = type { ptr, i64, ptr }

; Function Attrs: nounwind uwtable
define internal i32 @decoder_init(ptr noundef %0) #0 {
  %2 = alloca i32, align 4
  %3 = alloca ptr, align 8
  %4 = alloca ptr, align 8
  store ptr %0, ptr %3, align 8
  %5 = load ptr, ptr %3, align 8
  %6 = getelementptr inbounds nuw %struct.aom_codec_ctx, ptr %5, i32 0, i32 6
  %7 = load ptr, ptr %6, align 8
  %8 = icmp ne ptr %7, null
  br i1 %8, label %55, label %9

9:                                                ; preds = %1
  %10 = call ptr @aom_calloc(i64 noundef 1, i64 noundef 27440)
  store ptr %10, ptr %4, align 8
  %11 = load ptr, ptr %4, align 8
  %12 = icmp eq ptr %11, null
  br i1 %12, label %13, label %14

13:                                               ; preds = %9
  store i32 2, ptr %2, align 4
  br label %56

14:                                               ; preds = %9
  %15 = load ptr, ptr %4, align 8
  %16 = load ptr, ptr %3, align 8
  %17 = getelementptr inbounds nuw %struct.aom_codec_ctx, ptr %16, i32 0, i32 6
  store ptr %15, ptr %17, align 8
  %18 = load ptr, ptr %3, align 8
  %19 = getelementptr inbounds nuw %struct.aom_codec_ctx, ptr %18, i32 0, i32 4
  %20 = load i64, ptr %19, align 8
  %21 = load ptr, ptr %3, align 8
  %22 = getelementptr inbounds nuw %struct.aom_codec_ctx, ptr %21, i32 0, i32 6
  %23 = load ptr, ptr %22, align 8
  %24 = getelementptr inbounds nuw %struct.aom_codec_priv, ptr %23, i32 0, i32 1
  store i64 %20, ptr %24, align 8
  %25 = load ptr, ptr %4, align 8
  %26 = getelementptr inbounds nuw %struct.aom_codec_alg_priv, ptr %25, i32 0, i32 5
  store i32 0, ptr %26, align 4
  %27 = load ptr, ptr %4, align 8
  %28 = getelementptr inbounds nuw %struct.aom_codec_alg_priv, ptr %27, i32 0, i32 1
  %29 = getelementptr inbounds nuw %struct.aom_codec_dec_cfg, ptr %28, i32 0, i32 3
  store i32 1, ptr %29, align 4
  %30 = load ptr, ptr %3, align 8
  %31 = getelementptr inbounds nuw %struct.aom_codec_ctx, ptr %30, i32 0, i32 5
  %32 = load ptr, ptr %31, align 8
  %33 = icmp ne ptr %32, null
  br i1 %33, label %34, label %44

34:                                               ; preds = %14
  %35 = load ptr, ptr %4, align 8
  %36 = getelementptr inbounds nuw %struct.aom_codec_alg_priv, ptr %35, i32 0, i32 1
  %37 = load ptr, ptr %3, align 8
  %38 = getelementptr inbounds nuw %struct.aom_codec_ctx, ptr %37, i32 0, i32 5
  %39 = load ptr, ptr %38, align 8
  call void @llvm.memcpy.p0.p0.i64(ptr align 8 %36, ptr align 4 %39, i64 16, i1 false)
  %40 = load ptr, ptr %4, align 8
  %41 = getelementptr inbounds nuw %struct.aom_codec_alg_priv, ptr %40, i32 0, i32 1
  %42 = load ptr, ptr %3, align 8
  %43 = getelementptr inbounds nuw %struct.aom_codec_ctx, ptr %42, i32 0, i32 5
  store ptr %41, ptr %43, align 8
  br label %44

44:                                               ; preds = %34, %14
  %45 = load ptr, ptr %4, align 8
  %46 = getelementptr inbounds nuw %struct.aom_codec_alg_priv, ptr %45, i32 0, i32 23
  store i64 0, ptr %46, align 8
  %47 = load ptr, ptr %4, align 8
  %48 = getelementptr inbounds nuw %struct.aom_codec_alg_priv, ptr %47, i32 0, i32 15
  store i32 1, ptr %48, align 4
  %49 = load ptr, ptr %4, align 8
  %50 = getelementptr inbounds nuw %struct.aom_codec_alg_priv, ptr %49, i32 0, i32 13
  store i32 0, ptr %50, align 4
  %51 = load ptr, ptr %4, align 8
  %52 = getelementptr inbounds nuw %struct.aom_codec_alg_priv, ptr %51, i32 0, i32 11
  store i32 -1, ptr %52, align 4
  %53 = load ptr, ptr %4, align 8
  %54 = getelementptr inbounds nuw %struct.aom_codec_alg_priv, ptr %53, i32 0, i32 12
  store i32 -1, ptr %54, align 8
  br label %55

55:                                               ; preds = %44, %1
  store i32 0, ptr %2, align 4
  br label %56

56:                                               ; preds = %55, %13
  %57 = load i32, ptr %2, align 4
  ret i32 %57
}