; Function Attrs: nounwind uwtable
define internal range(i32 0, 3) i32 @decoder_init(ptr nocapture noundef %0) #0 {
  %2 = getelementptr inbounds nuw i8, ptr %0, i64 48
  %3 = load ptr, ptr %2, align 8
  %.not = icmp eq ptr %3, null
  br i1 %.not, label %4, label %23

4:                                                ; preds = %1
  %5 = tail call ptr @aom_calloc(i64 noundef 1, i64 noundef 27440) #12
  %6 = icmp eq ptr %5, null
  br i1 %6, label %23, label %7

7:                                                ; preds = %4
  store ptr %5, ptr %2, align 8
  %8 = getelementptr inbounds nuw i8, ptr %0, i64 32
  %9 = load i64, ptr %8, align 8
  %10 = getelementptr inbounds nuw i8, ptr %5, i64 8
  store i64 %9, ptr %10, align 8
  %11 = getelementptr inbounds nuw i8, ptr %5, i64 420
  store i32 0, ptr %11, align 4
  %12 = getelementptr inbounds i8, ptr %5, i64 220
  store i32 1, ptr %12, align 4
  %13 = getelementptr inbounds nuw i8, ptr %0, i64 40
  %14 = load ptr, ptr %13, align 8
  %.not20 = icmp eq ptr %14, null
  br i1 %.not20, label %17, label %15

15:                                               ; preds = %7
  %16 = getelementptr inbounds nuw i8, ptr %5, i64 208
  tail call void @llvm.memcpy.p0.p0.i64(ptr noundef nonnull align 8 dereferenceable(16) %16, ptr noundef nonnull align 4 dereferenceable(16) %14, i64 16, i1 false)
  store ptr %16, ptr %13, align 8
  br label %17

17:                                               ; preds = %15, %7
  %18 = getelementptr inbounds nuw i8, ptr %5, i64 27392
  store i64 0, ptr %18, align 8
  %19 = getelementptr inbounds nuw i8, ptr %5, i64 468
  store i32 1, ptr %19, align 4
  %20 = getelementptr inbounds nuw i8, ptr %5, i64 460
  store i32 0, ptr %20, align 4
  %21 = getelementptr inbounds nuw i8, ptr %5, i64 452
  store i32 -1, ptr %21, align 4
  %22 = getelementptr inbounds nuw i8, ptr %5, i64 456
  store i32 -1, ptr %22, align 8
  br label %23

23:                                               ; preds = %1, %17, %4
  %.0 = phi i32 [ 2, %4 ], [ 0, %17 ], [ 0, %1 ]
  ret i32 %.0
}